target datalayout = "e-m:e-p270:32:32-p271:32:32-p272:64:64-i64:64-i128:128-f80:128-n8:16:32:64-S128"
target triple = "x86_64-pc-linux-gnu"

%"struct.clang::extractapi::SymbolReference" = type { %"class.llvm::StringRef", %"class.llvm::StringRef", %"class.llvm::StringRef", ptr }
%"class.llvm::StringRef" = type { ptr, i64 }
%"struct.clang::extractapi::APIRecord" = type { ptr, %"class.llvm::StringRef", %"class.llvm::StringRef", %"struct.clang::extractapi::SymbolReference", %"class.clang::PresumedLoc", %"struct.clang::AvailabilityInfo", %"class.clang::LinkageInfo", %"class.std::vector", %"class.clang::extractapi::DeclarationFragments", %"class.clang::extractapi::DeclarationFragments", i8, %"class.clang::extractapi::AccessControl", i32, i32, ptr }
%"class.clang::PresumedLoc" = type { ptr, %"class.clang::FileID", i32, i32, %"class.clang::SourceLocation" }
%"class.clang::FileID" = type { i32 }
%"class.clang::SourceLocation" = type { i32 }
%"struct.clang::AvailabilityInfo" = type <{ %"class.llvm::SmallString", %"class.llvm::VersionTuple", %"class.llvm::VersionTuple", %"class.llvm::VersionTuple", i8, i8, i8, [5 x i8] }>
%"class.llvm::SmallString" = type { %"class.llvm::SmallVector" }
%"class.llvm::SmallVector" = type { %"class.llvm::SmallVectorImpl", %"struct.llvm::SmallVectorStorage" }
%"class.llvm::SmallVectorImpl" = type { %"class.llvm::SmallVectorTemplateBase" }
%"class.llvm::SmallVectorTemplateBase" = type { %"class.llvm::SmallVectorTemplateCommon" }
%"class.llvm::SmallVectorTemplateCommon" = type { %"class.llvm::SmallVectorBase" }
%"class.llvm::SmallVectorBase" = type { ptr, i64, i64 }
%"struct.llvm::SmallVectorStorage" = type { [32 x i8] }
%"class.llvm::VersionTuple" = type { i64, i64 }
%"class.clang::LinkageInfo" = type { i8 }
%"class.std::vector" = type { %"struct.std::_Vector_base" }
%"struct.std::_Vector_base" = type { %"struct.std::_Vector_base<clang::RawComment::CommentLine, std::allocator<clang::RawComment::CommentLine>>::_Vector_impl" }
%"struct.std::_Vector_base<clang::RawComment::CommentLine, std::allocator<clang::RawComment::CommentLine>>::_Vector_impl" = type { %"struct.std::_Vector_base<clang::RawComment::CommentLine, std::allocator<clang::RawComment::CommentLine>>::_Vector_impl_data" }
%"struct.std::_Vector_base<clang::RawComment::CommentLine, std::allocator<clang::RawComment::CommentLine>>::_Vector_impl_data" = type { ptr, ptr, ptr }
%"class.clang::extractapi::DeclarationFragments" = type { %"class.std::vector.0" }
%"class.std::vector.0" = type { %"struct.std::_Vector_base.1" }
%"struct.std::_Vector_base.1" = type { %"struct.std::_Vector_base<clang::extractapi::DeclarationFragments::Fragment, std::allocator<clang::extractapi::DeclarationFragments::Fragment>>::_Vector_impl" }
%"struct.std::_Vector_base<clang::extractapi::DeclarationFragments::Fragment, std::allocator<clang::extractapi::DeclarationFragments::Fragment>>::_Vector_impl" = type { %"struct.std::_Vector_base<clang::extractapi::DeclarationFragments::Fragment, std::allocator<clang::extractapi::DeclarationFragments::Fragment>>::_Vector_impl_data" }
%"struct.std::_Vector_base<clang::extractapi::DeclarationFragments::Fragment, std::allocator<clang::extractapi::DeclarationFragments::Fragment>>::_Vector_impl_data" = type { ptr, ptr, ptr }
%"class.clang::extractapi::AccessControl" = type { %"class.std::__cxx11::basic_string" }
%"class.std::__cxx11::basic_string" = type { %"struct.std::__cxx11::basic_string<char>::_Alloc_hider", i64, %union.anon }
%"struct.std::__cxx11::basic_string<char>::_Alloc_hider" = type { ptr }
%union.anon = type { i64, [8 x i8] }
%"struct.clang::extractapi::ObjCMethodRecord" = type { %"struct.clang::extractapi::APIRecord", %"class.clang::extractapi::FunctionSignature" }
%"class.clang::extractapi::FunctionSignature" = type { %"class.std::vector.43", %"class.clang::extractapi::DeclarationFragments" }
%"class.std::vector.43" = type { %"struct.std::_Vector_base.44" }
%"struct.std::_Vector_base.44" = type { %"struct.std::_Vector_base<clang::extractapi::FunctionSignature::Parameter, std::allocator<clang::extractapi::FunctionSignature::Parameter>>::_Vector_impl" }
%"struct.std::_Vector_base<clang::extractapi::FunctionSignature::Parameter, std::allocator<clang::extractapi::FunctionSignature::Parameter>>::_Vector_impl" = type { %"struct.std::_Vector_base<clang::extractapi::FunctionSignature::Parameter, std::allocator<clang::extractapi::FunctionSignature::Parameter>>::_Vector_impl_data" }
%"struct.std::_Vector_base<clang::extractapi::FunctionSignature::Parameter, std::allocator<clang::extractapi::FunctionSignature::Parameter>>::_Vector_impl_data" = type { ptr, ptr, ptr }
%"struct.clang::extractapi::DeclarationFragments::Fragment" = type { %"class.std::__cxx11::basic_string", i32, %"class.std::__cxx11::basic_string", ptr }

@_ZTVN5clang10extractapi16ObjCMethodRecordE = linkonce_odr unnamed_addr constant { [4 x ptr] } { [4 x ptr] [ptr null, ptr null, ptr @__cxa_pure_virtual, ptr @__cxa_pure_virtual] }, comdat, align 8

; Function Attrs: mustprogress nounwind uwtable
define linkonce_odr hidden void @_ZN5clang10extractapi20DeclarationFragments8FragmentD2Ev(ptr noundef nonnull align 8 dereferenceable(80) %0) unnamed_addr #0 comdat align 2 {
  %2 = alloca ptr, align 8
  store ptr %0, ptr %2, align 8
  %3 = load ptr, ptr %2, align 8
  %4 = getelementptr inbounds nuw %"struct.clang::extractapi::DeclarationFragments::Fragment", ptr %3, i32 0, i32 2
  call void @_ZNSt7__cxx1112basic_stringIcSt11char_traitsIcESaIcEED1Ev(ptr noundef nonnull align 8 dereferenceable(32) %4) #9
  %5 = getelementptr inbounds nuw %"struct.clang::extractapi::DeclarationFragments::Fragment", ptr %3, i32 0, i32 0
  call void @_ZNSt7__cxx1112basic_stringIcSt11char_traitsIcESaIcEED1Ev(ptr noundef nonnull align 8 dereferenceable(32) %5) #9
  ret void
}

; Function Attrs: mustprogress nounwind uwtable
define linkonce_odr hidden void @_ZNSt15__new_allocatorIN5clang10extractapi20DeclarationFragments8FragmentEED2Ev(ptr noundef nonnull align 1 dereferenceable(1) %0) unnamed_addr #0 comdat align 2 {
  %2 = alloca ptr, align 8
  store ptr %0, ptr %2, align 8
  ret void
}

; Function Attrs: mustprogress nounwind uwtable
define linkonce_odr hidden void @_ZNSt15__new_allocatorIN5clang10extractapi20DeclarationFragments8FragmentEE10deallocateEPS3_m(ptr noundef nonnull align 1 dereferenceable(1) %0, ptr noundef %1, i64 noundef %2) #0 comdat align 2 {
  %4 = alloca ptr, align 8
  %5 = alloca ptr, align 8
  %6 = alloca i64, align 8
  store ptr %0, ptr %4, align 8
  store ptr %1, ptr %5, align 8
  store i64 %2, ptr %6, align 8
  %7 = load ptr, ptr %5, align 8
  %8 = load i64, ptr %6, align 8
  %9 = mul i64 %8, 80
  call void @_ZdlPvm(ptr noundef %7, i64 noundef %9) #11
  ret void
}

; Function Attrs: mustprogress nounwind uwtable
define linkonce_odr void @_ZSt8_DestroyIN5clang10extractapi20DeclarationFragments8FragmentEEvPT_(ptr noundef %0) #0 comdat {
  %2 = alloca ptr, align 8
  store ptr %0, ptr %2, align 8
  %3 = load ptr, ptr %2, align 8
  call void @_ZN5clang10extractapi20DeclarationFragments8FragmentD2Ev(ptr noundef nonnull align 8 dereferenceable(80) %3) #9
  ret void
}

; Function Attrs: mustprogress nounwind uwtable
define linkonce_odr hidden void @_ZNSaIN5clang10extractapi20DeclarationFragments8FragmentEED2Ev(ptr noundef nonnull align 1 dereferenceable(1) %0) unnamed_addr #0 comdat align 2 {
  %2 = alloca ptr, align 8
  store ptr %0, ptr %2, align 8
  %3 = load ptr, ptr %2, align 8
  call void @_ZNSt15__new_allocatorIN5clang10extractapi20DeclarationFragments8FragmentEED2Ev(ptr noundef nonnull align 1 dereferenceable(1) %3) #9
  ret void
}

; Function Attrs: mustprogress nounwind uwtable
define linkonce_odr hidden void @_ZNSt16allocator_traitsISaIN5clang10extractapi20DeclarationFragments8FragmentEEE10deallocateERS4_PS3_m(ptr noundef nonnull align 1 dereferenceable(1) %0, ptr noundef %1, i64 noundef %2) #0 comdat align 2 {
  %4 = alloca ptr, align 8
  %5 = alloca ptr, align 8
  %6 = alloca i64, align 8
  store ptr %0, ptr %4, align 8
  store ptr %1, ptr %5, align 8
  store i64 %2, ptr %6, align 8
  %7 = load ptr, ptr %4, align 8
  %8 = load ptr, ptr %5, align 8
  %9 = load i64, ptr %6, align 8
  call void @_ZNSt15__new_allocatorIN5clang10extractapi20DeclarationFragments8FragmentEE10deallocateEPS3_m(ptr noundef nonnull align 1 dereferenceable(1) %7, ptr noundef %8, i64 noundef %9)
  ret void
}

; Function Attrs: mustprogress nounwind uwtable
define linkonce_odr hidden void @_ZNSt12_Destroy_auxILb0EE9__destroyIPN5clang10extractapi20DeclarationFragments8FragmentEEEvT_S7_(ptr noundef %0, ptr noundef %1) #0 comdat align 2 {
  %3 = alloca ptr, align 8
  %4 = alloca ptr, align 8
  store ptr %0, ptr %3, align 8
  store ptr %1, ptr %4, align 8
  br label %5

5:                                                ; preds = %11, %2
  %6 = load ptr, ptr %3, align 8
  %7 = load ptr, ptr %4, align 8
  %8 = icmp ne ptr %6, %7
  br i1 %8, label %9, label %14

9:                                                ; preds = %5
  %10 = load ptr, ptr %3, align 8
  call void @_ZSt8_DestroyIN5clang10extractapi20DeclarationFragments8FragmentEEvPT_(ptr noundef %10)
  br label %11

11:                                               ; preds = %9
  %12 = load ptr, ptr %3, align 8
  %13 = getelementptr inbounds %"struct.clang::extractapi::DeclarationFragments::Fragment", ptr %12, i32 1
  store ptr %13, ptr %3, align 8
  br label %5, !llvm.loop !11

14:                                               ; preds = %5
  ret void
}

; Function Attrs: mustprogress nounwind uwtable
define linkonce_odr hidden void @_ZNSt12_Vector_baseIN5clang10extractapi20DeclarationFragments8FragmentESaIS3_EE12_Vector_implD2Ev(ptr noundef nonnull align 8 dereferenceable(24) %0) unnamed_addr #0 comdat align 2 {
  %2 = alloca ptr, align 8
  store ptr %0, ptr %2, align 8
  %3 = load ptr, ptr %2, align 8
  call void @_ZNSaIN5clang10extractapi20DeclarationFragments8FragmentEED2Ev(ptr noundef nonnull align 1 dereferenceable(1) %3) #9
  ret void
}

; Function Attrs: mustprogress nounwind uwtable
define linkonce_odr hidden void @_ZNSt12_Vector_baseIN5clang10extractapi20DeclarationFragments8FragmentESaIS3_EE13_M_deallocateEPS3_m(ptr noundef nonnull align 8 dereferenceable(24) %0, ptr noundef %1, i64 noundef %2) #0 comdat align 2 {
  %4 = alloca ptr, align 8
  %5 = alloca ptr, align 8
  %6 = alloca i64, align 8
  store ptr %0, ptr %4, align 8
  store ptr %1, ptr %5, align 8
  store i64 %2, ptr %6, align 8
  %7 = load ptr, ptr %4, align 8
  %8 = load ptr, ptr %5, align 8
  %9 = icmp ne ptr %8, null
  br i1 %9, label %10, label %14

10:                                               ; preds = %3
  %11 = getelementptr inbounds nuw %"struct.std::_Vector_base.1", ptr %7, i32 0, i32 0
  %12 = load ptr, ptr %5, align 8
  %13 = load i64, ptr %6, align 8
  call void @_ZNSt16allocator_traitsISaIN5clang10extractapi20DeclarationFragments8FragmentEEE10deallocateERS4_PS3_m(ptr noundef nonnull align 1 dereferenceable(1) %11, ptr noundef %12, i64 noundef %13)
  br label %14

14:                                               ; preds = %10, %3
  ret void
}

; Function Attrs: mustprogress nounwind uwtable
define linkonce_odr void @_ZSt8_DestroyIPN5clang10extractapi20DeclarationFragments8FragmentEEvT_S5_(ptr noundef %0, ptr noundef %1) #0 comdat {
  %3 = alloca ptr, align 8
  %4 = alloca ptr, align 8
  store ptr %0, ptr %3, align 8
  store ptr %1, ptr %4, align 8
  %5 = load ptr, ptr %3, align 8
  %6 = load ptr, ptr %4, align 8
  call void @_ZNSt12_Destroy_auxILb0EE9__destroyIPN5clang10extractapi20DeclarationFragments8FragmentEEEvT_S7_(ptr noundef %5, ptr noundef %6)
  ret void
}

; Function Attrs: mustprogress nounwind uwtable
define linkonce_odr hidden void @_ZNSt12_Vector_baseIN5clang10extractapi20DeclarationFragments8FragmentESaIS3_EED2Ev(ptr noundef nonnull align 8 dereferenceable(24) %0) unnamed_addr #0 comdat align 2 {
  %2 = alloca ptr, align 8
  store ptr %0, ptr %2, align 8
  %3 = load ptr, ptr %2, align 8
  %4 = getelementptr inbounds nuw %"struct.std::_Vector_base.1", ptr %3, i32 0, i32 0
  %5 = getelementptr inbounds nuw %"struct.std::_Vector_base<clang::extractapi::DeclarationFragments::Fragment, std::allocator<clang::extractapi::DeclarationFragments::Fragment>>::_Vector_impl_data", ptr %4, i32 0, i32 0
  %6 = load ptr, ptr %5, align 8
  %7 = getelementptr inbounds nuw %"struct.std::_Vector_base.1", ptr %3, i32 0, i32 0
  %8 = getelementptr inbounds nuw %"struct.std::_Vector_base<clang::extractapi::DeclarationFragments::Fragment, std::allocator<clang::extractapi::DeclarationFragments::Fragment>>::_Vector_impl_data", ptr %7, i32 0, i32 2
  %9 = load ptr, ptr %8, align 8
  %10 = getelementptr inbounds nuw %"struct.std::_Vector_base.1", ptr %3, i32 0, i32 0
  %11 = getelementptr inbounds nuw %"struct.std::_Vector_base<clang::extractapi::DeclarationFragments::Fragment, std::allocator<clang::extractapi::DeclarationFragments::Fragment>>::_Vector_impl_data", ptr %10, i32 0, i32 0
  %12 = load ptr, ptr %11, align 8
  %13 = ptrtoint ptr %9 to i64
  %14 = ptrtoint ptr %12 to i64
  %15 = sub i64 %13, %14
  %16 = sdiv exact i64 %15, 80
  call void @_ZNSt12_Vector_baseIN5clang10extractapi20DeclarationFragments8FragmentESaIS3_EE13_M_deallocateEPS3_m(ptr noundef nonnull align 8 dereferenceable(24) %3, ptr noundef %6, i64 noundef %16)
  %17 = getelementptr inbounds nuw %"struct.std::_Vector_base.1", ptr %3, i32 0, i32 0
  call void @_ZNSt12_Vector_baseIN5clang10extractapi20DeclarationFragments8FragmentESaIS3_EE12_Vector_implD2Ev(ptr noundef nonnull align 8 dereferenceable(24) %17) #9
  ret void
}

; Function Attrs: mustprogress nounwind uwtable
define linkonce_odr void @_ZSt8_DestroyIPN5clang10extractapi20DeclarationFragments8FragmentES3_EvT_S5_RSaIT0_E(ptr noundef %0, ptr noundef %1, ptr noundef nonnull align 1 dereferenceable(1) %2) #0 comdat {
  %4 = alloca ptr, align 8
  %5 = alloca ptr, align 8
  %6 = alloca ptr, align 8
  store ptr %0, ptr %4, align 8
  store ptr %1, ptr %5, align 8
  store ptr %2, ptr %6, align 8
  %7 = load ptr, ptr %4, align 8
  %8 = load ptr, ptr %5, align 8
  call void @_ZSt8_DestroyIPN5clang10extractapi20DeclarationFragments8FragmentEEvT_S5_(ptr noundef %7, ptr noundef %8)
  ret void
}

; Function Attrs: mustprogress nounwind uwtable
define linkonce_odr hidden noundef nonnull align 1 dereferenceable(1) ptr @_ZNSt12_Vector_baseIN5clang10extractapi20DeclarationFragments8FragmentESaIS3_EE19_M_get_Tp_allocatorEv(ptr noundef nonnull align 8 dereferenceable(24) %0) #0 comdat align 2 {
  %2 = alloca ptr, align 8
  store ptr %0, ptr %2, align 8
  %3 = load ptr, ptr %2, align 8
  %4 = getelementptr inbounds nuw %"struct.std::_Vector_base.1", ptr %3, i32 0, i32 0
  ret ptr %4
}

; Function Attrs: mustprogress nounwind uwtable
define linkonce_odr hidden void @_ZNSt6vectorIN5clang10extractapi20DeclarationFragments8FragmentESaIS3_EED2Ev(ptr noundef nonnull align 8 dereferenceable(24) %0) unnamed_addr #0 comdat align 2 {
  %2 = alloca ptr, align 8
  store ptr %0, ptr %2, align 8
  %3 = load ptr, ptr %2, align 8
  %4 = getelementptr inbounds nuw %"struct.std::_Vector_base.1", ptr %3, i32 0, i32 0
  %5 = getelementptr inbounds nuw %"struct.std::_Vector_base<clang::extractapi::DeclarationFragments::Fragment, std::allocator<clang::extractapi::DeclarationFragments::Fragment>>::_Vector_impl_data", ptr %4, i32 0, i32 0
  %6 = load ptr, ptr %5, align 8
  %7 = getelementptr inbounds nuw %"struct.std::_Vector_base.1", ptr %3, i32 0, i32 0
  %8 = getelementptr inbounds nuw %"struct.std::_Vector_base<clang::extractapi::DeclarationFragments::Fragment, std::allocator<clang::extractapi::DeclarationFragments::Fragment>>::_Vector_impl_data", ptr %7, i32 0, i32 1
  %9 = load ptr, ptr %8, align 8
  %10 = call noundef nonnull align 1 dereferenceable(1) ptr @_ZNSt12_Vector_baseIN5clang10extractapi20DeclarationFragments8FragmentESaIS3_EE19_M_get_Tp_allocatorEv(ptr noundef nonnull align 8 dereferenceable(24) %3) #9
  call void @_ZSt8_DestroyIPN5clang10extractapi20DeclarationFragments8FragmentES3_EvT_S5_RSaIT0_E(ptr noundef %6, ptr noundef %9, ptr noundef nonnull align 1 dereferenceable(1) %10)
  call void @_ZNSt12_Vector_baseIN5clang10extractapi20DeclarationFragments8FragmentESaIS3_EED2Ev(ptr noundef nonnull align 8 dereferenceable(24) %3) #9
  ret void
}

; Function Attrs: mustprogress nounwind uwtable
define linkonce_odr hidden void @_ZN5clang10extractapi20DeclarationFragmentsD2Ev(ptr noundef nonnull align 8 dereferenceable(24) %0) unnamed_addr #0 comdat align 2 {
  %2 = alloca ptr, align 8
  store ptr %0, ptr %2, align 8
  %3 = load ptr, ptr %2, align 8
  %4 = getelementptr inbounds nuw %"class.clang::extractapi::DeclarationFragments", ptr %3, i32 0, i32 0
  call void @_ZNSt6vectorIN5clang10extractapi20DeclarationFragments8FragmentESaIS3_EED2Ev(ptr noundef nonnull align 8 dereferenceable(24) %4) #9
  ret void
}

; Function Attrs: mustprogress nounwind uwtable
define linkonce_odr hidden void @_ZN5clang10extractapi17FunctionSignatureD2Ev(ptr noundef nonnull align 8 dereferenceable(48) %0) unnamed_addr #0 comdat align 2 {
  %2 = alloca ptr, align 8
  store ptr %0, ptr %2, align 8
  %3 = load ptr, ptr %2, align 8
  %4 = getelementptr inbounds nuw %"class.clang::extractapi::FunctionSignature", ptr %3, i32 0, i32 1
  call void @_ZN5clang10extractapi20DeclarationFragmentsD2Ev(ptr noundef nonnull align 8 dereferenceable(24) %4) #9
  %5 = getelementptr inbounds nuw %"class.clang::extractapi::FunctionSignature", ptr %3, i32 0, i32 0
  call void @_ZNSt6vectorIN5clang10extractapi17FunctionSignature9ParameterESaIS3_EED2Ev(ptr noundef nonnull align 8 dereferenceable(24) %5) #9
  ret void
}

; Function Attrs: mustprogress nounwind uwtable
define dso_local void @_ZN5clang10extractapi16ObjCMethodRecordD2Ev(ptr noundef nonnull align 8 dereferenceable(416) %0) unnamed_addr #0 align 2 {
  %2 = alloca ptr, align 8
  store ptr %0, ptr %2, align 8
  %3 = load ptr, ptr %2, align 8
  store ptr getelementptr inbounds inrange(-16, 16) ({ [4 x ptr] }, ptr @_ZTVN5clang10extractapi16ObjCMethodRecordE, i32 0, i32 0, i32 2), ptr %3, align 8
  %4 = getelementptr inbounds nuw %"struct.clang::extractapi::ObjCMethodRecord", ptr %3, i32 0, i32 1
  call void @_ZN5clang10extractapi17FunctionSignatureD2Ev(ptr noundef nonnull align 8 dereferenceable(48) %4) #9
  call void @_ZN5clang10extractapi9APIRecordD2Ev(ptr noundef nonnull align 8 dereferenceable(368) %3) #9
  ret void
}