; Function Attrs: mustprogress nounwind uwtable
define dso_local void @_ZN5clang10extractapi16ObjCMethodRecordD2Ev(ptr noundef nonnull align 8 dereferenceable(416) %0) unnamed_addr #3 align 2 {
  store ptr getelementptr inbounds inrange(-16, 16) (i8, ptr @_ZTVN5clang10extractapi16ObjCMethodRecordE, i64 16), ptr %0, align 8
  %2 = getelementptr inbounds i8, ptr %0, i64 392
  %3 = load ptr, ptr %2, align 8
  %4 = getelementptr inbounds i8, ptr %0, i64 400
  %5 = load ptr, ptr %4, align 8
  %.not4.i.i.i.i.i.i = icmp eq ptr %3, %5
  br i1 %.not4.i.i.i.i.i.i, label %_ZSt8_DestroyIPN5clang10extractapi20DeclarationFragments8FragmentES3_EvT_S5_RSaIT0_E.exit.i.i.i, label %.lr.ph.i.i.i.i.i.i

.lr.ph.i.i.i.i.i.i:                               ; preds = %1, %.lr.ph.i.i.i.i.i.i
  %.05.i.i.i.i.i.i = phi ptr [ %7, %.lr.ph.i.i.i.i.i.i ], [ %3, %1 ]
  %6 = getelementptr inbounds nuw i8, ptr %.05.i.i.i.i.i.i, i64 40
  tail call void @_ZNSt7__cxx1112basic_stringIcSt11char_traitsIcESaIcEED1Ev(ptr noundef nonnull align 8 dereferenceable(32) %6) #17
  tail call void @_ZNSt7__cxx1112basic_stringIcSt11char_traitsIcESaIcEED1Ev(ptr noundef nonnull align 8 dereferenceable(32) %.05.i.i.i.i.i.i) #17
  %7 = getelementptr inbounds i8, ptr %.05.i.i.i.i.i.i, i64 80
  %.not.i.i.i.i.i.i = icmp eq ptr %7, %5
  br i1 %.not.i.i.i.i.i.i, label %_ZSt8_DestroyIPN5clang10extractapi20DeclarationFragments8FragmentES3_EvT_S5_RSaIT0_E.exitthread-pre-split.i.i.i, label %.lr.ph.i.i.i.i.i.i, !llvm.loop !11

_ZSt8_DestroyIPN5clang10extractapi20DeclarationFragments8FragmentES3_EvT_S5_RSaIT0_E.exitthread-pre-split.i.i.i: ; preds = %.lr.ph.i.i.i.i.i.i
  %.pr.i.i.i = load ptr, ptr %2, align 8
  br label %_ZSt8_DestroyIPN5clang10extractapi20DeclarationFragments8FragmentES3_EvT_S5_RSaIT0_E.exit.i.i.i

_ZSt8_DestroyIPN5clang10extractapi20DeclarationFragments8FragmentES3_EvT_S5_RSaIT0_E.exit.i.i.i: ; preds = %_ZSt8_DestroyIPN5clang10extractapi20DeclarationFragments8FragmentES3_EvT_S5_RSaIT0_E.exitthread-pre-split.i.i.i, %1
  %8 = phi ptr [ %.pr.i.i.i, %_ZSt8_DestroyIPN5clang10extractapi20DeclarationFragments8FragmentES3_EvT_S5_RSaIT0_E.exitthread-pre-split.i.i.i ], [ %3, %1 ]
  %.not.i.i.i.i.i = icmp eq ptr %8, null
  br i1 %.not.i.i.i.i.i, label %_ZN5clang10extractapi17FunctionSignatureD2Ev.exit, label %9

9:                                                ; preds = %_ZSt8_DestroyIPN5clang10extractapi20DeclarationFragments8FragmentES3_EvT_S5_RSaIT0_E.exit.i.i.i
  %10 = getelementptr inbounds i8, ptr %0, i64 408
  %11 = load ptr, ptr %10, align 8
  %12 = ptrtoint ptr %11 to i64
  %13 = ptrtoint ptr %8 to i64
  %14 = sub i64 %12, %13
  tail call void @_ZdlPvm(ptr noundef nonnull %8, i64 noundef %14) #18
  br label %_ZN5clang10extractapi17FunctionSignatureD2Ev.exit

_ZN5clang10extractapi17FunctionSignatureD2Ev.exit: ; preds = %_ZSt8_DestroyIPN5clang10extractapi20DeclarationFragments8FragmentES3_EvT_S5_RSaIT0_E.exit.i.i.i, %9
  %15 = getelementptr inbounds nuw i8, ptr %0, i64 368
  tail call void @_ZNSt6vectorIN5clang10extractapi17FunctionSignature9ParameterESaIS3_EED2Ev(ptr noundef nonnull align 8 dereferenceable(24) %15) #17
  tail call void @_ZN5clang10extractapi9APIRecordD2Ev(ptr noundef nonnull align 8 dereferenceable(368) %0) #17
  ret void
}